target datalayout = "e-m:e-p270:32:32-p271:32:32-p272:64:64-i64:64-i128:128-f80:128-n8:16:32:64-S128"
target triple = "x86_64-pc-linux-gnu"

%struct.jit_State = type { %struct.GCtrace, ptr, ptr, ptr, ptr, ptr, ptr, i32, i32, i32, i8, i8, %struct.IRType1, i8, %struct.FoldState, ptr, i32, i32, i32, i32, i32, i32, i32, [1 x i32], [5 x %union.TValue], [3 x %union.TValue], ptr, i32, i32, i32, i32, ptr, ptr, i32, i32, i8, ptr, i32, i32, i16, [101 x i16], [258 x i32], [15 x i32], [16 x ptr], [64 x %struct.HotPenalty], i32, [16 x %struct.BPropEntry], i32, %struct.ScEvEntry, ptr, i32, i32, i32, ptr, i32, i32, ptr, ptr, ptr, i64, i64, %union.TValue, ptr, i32, i32 }
%struct.GCtrace = type { %struct.GCRef, i8, i8, i16, i32, i32, %struct.GCRef, ptr, i32, i32, ptr, ptr, %struct.GCRef, %struct.MRef, i32, i32, ptr, i32, i16, i16, i16, i16, i16, i16, i16, i8, i8, i8, i8 }
%struct.GCRef = type { i64 }
%struct.MRef = type { i64 }
%struct.IRType1 = type { i8 }
%struct.FoldState = type { %union.IRIns, [2 x %union.IRIns], [2 x %union.IRIns] }
%union.IRIns = type { %struct.GCRef }
%struct.HotPenalty = type { %struct.MRef, i16, i16 }
%struct.BPropEntry = type { i16, i16, i32 }
%struct.ScEvEntry = type { %struct.MRef, i16, i16, i16, i16, %struct.IRType1, i8 }
%union.TValue = type { i64 }
%struct.anon.0 = type { i32, %struct.IRType1, i8, i8, i8 }
%struct.anon = type { i16, i16, i16, i16 }

; Function Attrs: nounwind uwtable
define hidden void @lj_ir_rollback(ptr noundef %0, i32 noundef %1) #3 {
  %3 = alloca ptr, align 8
  %4 = alloca i32, align 4
  %5 = alloca i32, align 4
  %6 = alloca ptr, align 8
  store ptr %0, ptr %3, align 8, !tbaa !4
  store i32 %1, ptr %4, align 4, !tbaa !32
  call void @llvm.lifetime.start.p0(i64 4, ptr %5) #10
  %7 = load ptr, ptr %3, align 8, !tbaa !4
  %8 = getelementptr inbounds nuw %struct.jit_State, ptr %7, i32 0, i32 0
  %9 = getelementptr inbounds nuw %struct.GCtrace, ptr %8, i32 0, i32 4
  %10 = load i32, ptr %9, align 4, !tbaa !40
  store i32 %10, ptr %5, align 4, !tbaa !32
  br label %11

11:                                               ; preds = %15, %2
  %12 = load i32, ptr %5, align 4, !tbaa !32
  %13 = load i32, ptr %4, align 4, !tbaa !32
  %14 = icmp ugt i32 %12, %13
  br i1 %14, label %15, label %35

15:                                               ; preds = %11
  call void @llvm.lifetime.start.p0(i64 8, ptr %6) #10
  %16 = load i32, ptr %5, align 4, !tbaa !32
  %17 = add i32 %16, -1
  store i32 %17, ptr %5, align 4, !tbaa !32
  %18 = load ptr, ptr %3, align 8, !tbaa !4
  %19 = getelementptr inbounds nuw %struct.jit_State, ptr %18, i32 0, i32 0
  %20 = getelementptr inbounds nuw %struct.GCtrace, ptr %19, i32 0, i32 7
  %21 = load ptr, ptr %20, align 8, !tbaa !34
  %22 = load i32, ptr %5, align 4, !tbaa !32
  %23 = zext i32 %22 to i64
  %24 = getelementptr inbounds nuw %union.IRIns, ptr %21, i64 %23
  store ptr %24, ptr %6, align 8, !tbaa !30
  %25 = load ptr, ptr %6, align 8, !tbaa !30
  %26 = getelementptr inbounds nuw %struct.anon, ptr %25, i32 0, i32 3
  %27 = load i16, ptr %26, align 2, !tbaa !35
  %28 = load ptr, ptr %3, align 8, !tbaa !4
  %29 = getelementptr inbounds nuw %struct.jit_State, ptr %28, i32 0, i32 40
  %30 = load ptr, ptr %6, align 8, !tbaa !30
  %31 = getelementptr inbounds nuw %struct.anon.0, ptr %30, i32 0, i32 2
  %32 = load i8, ptr %31, align 1, !tbaa !35
  %33 = zext i8 %32 to i64
  %34 = getelementptr inbounds nuw [101 x i16], ptr %29, i64 0, i64 %33
  store i16 %27, ptr %34, align 2, !tbaa !36
  call void @llvm.lifetime.end.p0(i64 8, ptr %6) #10
  br label %11, !llvm.loop !72

35:                                               ; preds = %11
  %36 = load i32, ptr %5, align 4, !tbaa !32
  %37 = load ptr, ptr %3, align 8, !tbaa !4
  %38 = getelementptr inbounds nuw %struct.jit_State, ptr %37, i32 0, i32 0
  %39 = getelementptr inbounds nuw %struct.GCtrace, ptr %38, i32 0, i32 4
  store i32 %36, ptr %39, align 4, !tbaa !40
  call void @llvm.lifetime.end.p0(i64 4, ptr %5) #10
  ret void
}