; Function Attrs: nofree norecurse nosync nounwind memory(read, argmem: readwrite, inaccessiblemem: none) uwtable
define hidden void @lj_ir_rollback(ptr noundef captures(none) %0, i32 noundef %1) local_unnamed_addr #12 {
  %3 = getelementptr inbounds nuw i8, ptr %0, i64 12
  %4 = load i32, ptr %3, align 4, !tbaa !31
  %5 = icmp ugt i32 %4, %1
  br i1 %5, label %.lr.ph, label %._crit_edge

.lr.ph:                                           ; preds = %2
  %6 = getelementptr inbounds nuw i8, ptr %0, i64 32
  %7 = load ptr, ptr %6, align 8, !tbaa !30
  %8 = getelementptr inbounds nuw i8, ptr %0, i64 402
  %9 = zext i32 %4 to i64
  %10 = zext i32 %1 to i64
  br label %11

11:                                               ; preds = %.lr.ph, %11
  %indvars.iv = phi i64 [ %9, %.lr.ph ], [ %12, %11 ]
  %12 = add nsw i64 %indvars.iv, -1
  %13 = getelementptr inbounds nuw %union.IRIns, ptr %7, i64 %12
  %14 = getelementptr inbounds nuw i8, ptr %13, i64 6
  %15 = load i16, ptr %14, align 2, !tbaa !33
  %16 = getelementptr inbounds nuw i8, ptr %13, i64 5
  %17 = load i8, ptr %16, align 1, !tbaa !33
  %18 = zext i8 %17 to i64
  %19 = getelementptr inbounds nuw [101 x i16], ptr %8, i64 0, i64 %18
  store i16 %15, ptr %19, align 2, !tbaa !34
  %.wide = icmp ugt i64 %12, %10
  br i1 %.wide, label %11, label %._crit_edge.loopexit, !llvm.loop !54

._crit_edge.loopexit:                             ; preds = %11
  %20 = trunc i64 %12 to i32
  br label %._crit_edge

._crit_edge:                                      ; preds = %._crit_edge.loopexit, %2
  %.0.lcssa = phi i32 [ %4, %2 ], [ %20, %._crit_edge.loopexit ]
  store i32 %.0.lcssa, ptr %3, align 4, !tbaa !31
  ret void
}